target datalayout = "e-m:e-p270:32:32-p271:32:32-p272:64:64-i64:64-i128:128-f80:128-n8:16:32:64-S128"
target triple = "x86_64-pc-linux-gnu"

@H5P_CLS_DATASET_XFER_ID_g = external global i64, align 8
@H5_libinit_g = external global i8, align 1
@H5_libterm_g = external global i8, align 1
@.str.1 = private unnamed_addr constant [101 x i8] c"generated/home/dtcxzyw/WorkSpace/Projects/compilers/llvm-opt-benchmark/bench/hdf5/hdf5/src/H5Pdxpl.c\00", align 1
@H5E_FUNC_g = external global i64, align 8
@H5E_CANTINIT_g = external global i64, align 8
@.str.2 = private unnamed_addr constant [30 x i8] c"library initialization failed\00", align 1
@H5E_CANTSET_g = external global i64, align 8
@.str.3 = private unnamed_addr constant [22 x i8] c"can't set API context\00", align 1
@H5E_ID_g = external global i64, align 8
@H5E_BADID_g = external global i64, align 8
@.str.5 = private unnamed_addr constant [25 x i8] c"can't find object for ID\00", align 1
@H5E_PLIST_g = external global i64, align 8
@H5E_CANTGET_g = external global i64, align 8
@.str.24 = private unnamed_addr constant [20 x i8] c"unable to get value\00", align 1
@__func__.H5Pget_btree_ratios = private unnamed_addr constant [20 x i8] c"H5Pget_btree_ratios\00", align 1
@.str.29 = private unnamed_addr constant [18 x i8] c"btree_split_ratio\00", align 1

; Function Attrs: nounwind uwtable
define i32 @H5Pget_btree_ratios(i64 noundef %0, ptr noundef %1, ptr noundef %2, ptr noundef %3) #0 {
  %5 = alloca i64, align 8
  %6 = alloca ptr, align 8
  %7 = alloca ptr, align 8
  %8 = alloca ptr, align 8
  %9 = alloca ptr, align 8
  %10 = alloca [3 x double], align 16
  %11 = alloca i32, align 4
  %12 = alloca i8, align 1
  %13 = alloca i8, align 1
  store i64 %0, ptr %5, align 8
  store ptr %1, ptr %6, align 8
  store ptr %2, ptr %7, align 8
  store ptr %3, ptr %8, align 8
  store i32 0, ptr %11, align 4
  store i8 0, ptr %12, align 1
  store i8 0, ptr %13, align 1
  %14 = load i8, ptr @H5_libinit_g, align 1
  %15 = trunc i8 %14 to i1
  br i1 %15, label %20, label %16

16:                                               ; preds = %4
  %17 = load i8, ptr @H5_libterm_g, align 1
  %18 = trunc i8 %17 to i1
  %19 = xor i1 %18, true
  br label %20

20:                                               ; preds = %16, %4
  %21 = phi i1 [ false, %4 ], [ %19, %16 ]
  %22 = xor i1 %21, true
  %23 = xor i1 %22, true
  %24 = zext i1 %23 to i32
  %25 = sext i32 %24 to i64
  %26 = icmp ne i64 %25, 0
  br i1 %26, label %27, label %51

27:                                               ; preds = %20
  %28 = call i32 @H5_init_library()
  %29 = icmp slt i32 %28, 0
  %30 = xor i1 %29, true
  %31 = xor i1 %30, true
  %32 = zext i1 %31 to i32
  %33 = sext i32 %32 to i64
  %34 = icmp ne i64 %33, 0
  br i1 %34, label %35, label %50

35:                                               ; preds = %27
  br label %36

36:                                               ; preds = %35
  br label %37

37:                                               ; preds = %36
  br label %38

38:                                               ; preds = %37
  %39 = load i64, ptr @H5E_FUNC_g, align 8
  %40 = load i64, ptr @H5E_CANTINIT_g, align 8
  %41 = call i32 (ptr, ptr, i32, i64, i64, ptr, ...) @H5E_printf_stack(ptr noundef @.str.1, ptr noundef @__func__.H5Pget_btree_ratios, i32 noundef 1414, i64 noundef %39, i64 noundef %40, ptr noundef @.str.2)
  br label %42

42:                                               ; preds = %38
  store i8 1, ptr %13, align 1
  %43 = load i8, ptr %13, align 1
  %44 = trunc i8 %43 to i1
  %45 = zext i1 %44 to i8
  store i8 %45, ptr %13, align 1
  br label %46

46:                                               ; preds = %42
  br label %47

47:                                               ; preds = %46
  store i32 -1, ptr %11, align 4
  br label %137

48:                                               ; No predecessors!
  br label %49

49:                                               ; preds = %48
  br label %50

50:                                               ; preds = %49, %27
  br label %51

51:                                               ; preds = %50, %20
  %52 = call i32 @H5CX_push()
  %53 = icmp slt i32 %52, 0
  %54 = xor i1 %53, true
  %55 = xor i1 %54, true
  %56 = zext i1 %55 to i32
  %57 = sext i32 %56 to i64
  %58 = icmp ne i64 %57, 0
  br i1 %58, label %59, label %74

59:                                               ; preds = %51
  br label %60

60:                                               ; preds = %59
  br label %61

61:                                               ; preds = %60
  br label %62

62:                                               ; preds = %61
  %63 = load i64, ptr @H5E_FUNC_g, align 8
  %64 = load i64, ptr @H5E_CANTSET_g, align 8
  %65 = call i32 (ptr, ptr, i32, i64, i64, ptr, ...) @H5E_printf_stack(ptr noundef @.str.1, ptr noundef @__func__.H5Pget_btree_ratios, i32 noundef 1414, i64 noundef %63, i64 noundef %64, ptr noundef @.str.3)
  br label %66

66:                                               ; preds = %62
  store i8 1, ptr %13, align 1
  %67 = load i8, ptr %13, align 1
  %68 = trunc i8 %67 to i1
  %69 = zext i1 %68 to i8
  store i8 %69, ptr %13, align 1
  br label %70

70:                                               ; preds = %66
  br label %71

71:                                               ; preds = %70
  store i32 -1, ptr %11, align 4
  br label %137

72:                                               ; No predecessors!
  br label %73

73:                                               ; preds = %72
  br label %75

74:                                               ; preds = %51
  store i8 1, ptr %12, align 1
  br label %75

75:                                               ; preds = %74, %73
  %76 = call i32 @H5E_clear_stack()
  %77 = load i64, ptr %5, align 8
  %78 = load i64, ptr @H5P_CLS_DATASET_XFER_ID_g, align 8
  %79 = call ptr @H5P_object_verify(i64 noundef %77, i64 noundef %78)
  store ptr %79, ptr %9, align 8
  %80 = icmp eq ptr null, %79
  br i1 %80, label %81, label %96

81:                                               ; preds = %75
  br label %82

82:                                               ; preds = %81
  br label %83

83:                                               ; preds = %82
  br label %84

84:                                               ; preds = %83
  %85 = load i64, ptr @H5E_ID_g, align 8
  %86 = load i64, ptr @H5E_BADID_g, align 8
  %87 = call i32 (ptr, ptr, i32, i64, i64, ptr, ...) @H5E_printf_stack(ptr noundef @.str.1, ptr noundef @__func__.H5Pget_btree_ratios, i32 noundef 1418, i64 noundef %85, i64 noundef %86, ptr noundef @.str.5)
  br label %88

88:                                               ; preds = %84
  store i8 1, ptr %13, align 1
  %89 = load i8, ptr %13, align 1
  %90 = trunc i8 %89 to i1
  %91 = zext i1 %90 to i8
  store i8 %91, ptr %13, align 1
  br label %92

92:                                               ; preds = %88
  br label %93

93:                                               ; preds = %92
  store i32 -1, ptr %11, align 4
  br label %137

94:                                               ; No predecessors!
  br label %95

95:                                               ; preds = %94
  br label %96

96:                                               ; preds = %95, %75
  %97 = load ptr, ptr %9, align 8
  %98 = call i32 @H5P_get(ptr noundef %97, ptr noundef @.str.29, ptr noundef %10)
  %99 = icmp slt i32 %98, 0
  br i1 %99, label %100, label %115

100:                                              ; preds = %96
  br label %101

101:                                              ; preds = %100
  br label %102

102:                                              ; preds = %101
  br label %103

103:                                              ; preds = %102
  %104 = load i64, ptr @H5E_PLIST_g, align 8
  %105 = load i64, ptr @H5E_CANTGET_g, align 8
  %106 = call i32 (ptr, ptr, i32, i64, i64, ptr, ...) @H5E_printf_stack(ptr noundef @.str.1, ptr noundef @__func__.H5Pget_btree_ratios, i32 noundef 1422, i64 noundef %104, i64 noundef %105, ptr noundef @.str.24)
  br label %107

107:                                              ; preds = %103
  store i8 1, ptr %13, align 1
  %108 = load i8, ptr %13, align 1
  %109 = trunc i8 %108 to i1
  %110 = zext i1 %109 to i8
  store i8 %110, ptr %13, align 1
  br label %111

111:                                              ; preds = %107
  br label %112

112:                                              ; preds = %111
  store i32 -1, ptr %11, align 4
  br label %137

113:                                              ; No predecessors!
  br label %114

114:                                              ; preds = %113
  br label %115

115:                                              ; preds = %114, %96
  %116 = load ptr, ptr %6, align 8
  %117 = icmp ne ptr %116, null
  br i1 %117, label %118, label %122

118:                                              ; preds = %115
  %119 = getelementptr inbounds [3 x double], ptr %10, i64 0, i64 0
  %120 = load double, ptr %119, align 16
  %121 = load ptr, ptr %6, align 8
  store double %120, ptr %121, align 8
  br label %122

122:                                              ; preds = %118, %115
  %123 = load ptr, ptr %7, align 8
  %124 = icmp ne ptr %123, null
  br i1 %124, label %125, label %129

125:                                              ; preds = %122
  %126 = getelementptr inbounds [3 x double], ptr %10, i64 0, i64 1
  %127 = load double, ptr %126, align 8
  %128 = load ptr, ptr %7, align 8
  store double %127, ptr %128, align 8
  br label %129

129:                                              ; preds = %125, %122
  %130 = load ptr, ptr %8, align 8
  %131 = icmp ne ptr %130, null
  br i1 %131, label %132, label %136

132:                                              ; preds = %129
  %133 = getelementptr inbounds [3 x double], ptr %10, i64 0, i64 2
  %134 = load double, ptr %133, align 16
  %135 = load ptr, ptr %8, align 8
  store double %134, ptr %135, align 8
  br label %136

136:                                              ; preds = %132, %129
  br label %137

137:                                              ; preds = %136, %112, %93, %71, %47
  %138 = load i8, ptr %12, align 1
  %139 = trunc i8 %138 to i1
  %140 = xor i1 %139, true
  %141 = xor i1 %140, true
  %142 = zext i1 %141 to i32
  %143 = sext i32 %142 to i64
  %144 = icmp ne i64 %143, 0
  br i1 %144, label %145, label %147

145:                                              ; preds = %137
  %146 = call i32 @H5CX_pop(i1 noundef zeroext true)
  store i8 0, ptr %12, align 1
  br label %147

147:                                              ; preds = %145, %137
  %148 = load i8, ptr %13, align 1
  %149 = trunc i8 %148 to i1
  %150 = xor i1 %149, true
  %151 = xor i1 %150, true
  %152 = zext i1 %151 to i32
  %153 = sext i32 %152 to i64
  %154 = icmp ne i64 %153, 0
  br i1 %154, label %155, label %157

155:                                              ; preds = %147
  %156 = call i32 @H5E_dump_api_stack()
  br label %157

157:                                              ; preds = %155, %147
  %158 = load i32, ptr %11, align 4
  ret i32 %158
}