; Function Attrs: nounwind uwtable
define range(i32 -1, 1) i32 @H5Pget_btree_ratios(i64 noundef %0, ptr noundef writeonly %1, ptr noundef writeonly %2, ptr noundef writeonly %3) local_unnamed_addr #0 {
  %5 = alloca [3 x double], align 16
  %6 = load i8, ptr @H5_libinit_g, align 1
  %7 = trunc i8 %6 to i1
  %8 = load i8, ptr @H5_libterm_g, align 1
  %9 = trunc i8 %8 to i1
  %10 = select i1 %7, i1 true, i1 %9
  br i1 %10, label %18, label %11

11:                                               ; preds = %4
  %12 = tail call i32 @H5_init_library() #8
  %13 = icmp slt i32 %12, 0
  br i1 %13, label %14, label %18

14:                                               ; preds = %11
  %15 = load i64, ptr @H5E_FUNC_g, align 8
  %16 = load i64, ptr @H5E_CANTINIT_g, align 8
  %17 = tail call i32 (ptr, ptr, i32, i64, i64, ptr, ...) @H5E_printf_stack(ptr noundef nonnull @.str.1, ptr noundef nonnull @__func__.H5Pget_btree_ratios, i32 noundef 1414, i64 noundef %15, i64 noundef %16, ptr noundef nonnull @.str.2) #8
  br label %.thread30

18:                                               ; preds = %11, %4
  %19 = tail call i32 @H5CX_push() #8
  %20 = icmp slt i32 %19, 0
  br i1 %20, label %21, label %25

21:                                               ; preds = %18
  %22 = load i64, ptr @H5E_FUNC_g, align 8
  %23 = load i64, ptr @H5E_CANTSET_g, align 8
  %24 = tail call i32 (ptr, ptr, i32, i64, i64, ptr, ...) @H5E_printf_stack(ptr noundef nonnull @.str.1, ptr noundef nonnull @__func__.H5Pget_btree_ratios, i32 noundef 1414, i64 noundef %22, i64 noundef %23, ptr noundef nonnull @.str.3) #8
  br label %.thread30

25:                                               ; preds = %18
  %26 = tail call i32 @H5E_clear_stack() #8
  %27 = load i64, ptr @H5P_CLS_DATASET_XFER_ID_g, align 8
  %28 = tail call ptr @H5P_object_verify(i64 noundef %0, i64 noundef %27) #8
  %29 = icmp eq ptr %28, null
  br i1 %29, label %30, label %34

30:                                               ; preds = %25
  %31 = load i64, ptr @H5E_ID_g, align 8
  %32 = load i64, ptr @H5E_BADID_g, align 8
  %33 = tail call i32 (ptr, ptr, i32, i64, i64, ptr, ...) @H5E_printf_stack(ptr noundef nonnull @.str.1, ptr noundef nonnull @__func__.H5Pget_btree_ratios, i32 noundef 1418, i64 noundef %31, i64 noundef %32, ptr noundef nonnull @.str.5) #8
  br label %.thread36

34:                                               ; preds = %25
  %35 = call i32 @H5P_get(ptr noundef nonnull %28, ptr noundef nonnull @.str.29, ptr noundef nonnull %5) #8
  %36 = icmp slt i32 %35, 0
  br i1 %36, label %37, label %41

37:                                               ; preds = %34
  %38 = load i64, ptr @H5E_PLIST_g, align 8
  %39 = load i64, ptr @H5E_CANTGET_g, align 8
  %40 = call i32 (ptr, ptr, i32, i64, i64, ptr, ...) @H5E_printf_stack(ptr noundef nonnull @.str.1, ptr noundef nonnull @__func__.H5Pget_btree_ratios, i32 noundef 1422, i64 noundef %38, i64 noundef %39, ptr noundef nonnull @.str.24) #8
  br label %.thread36

41:                                               ; preds = %34
  %.not = icmp eq ptr %1, null
  br i1 %.not, label %44, label %42

42:                                               ; preds = %41
  %43 = load double, ptr %5, align 16
  store double %43, ptr %1, align 8
  br label %44

44:                                               ; preds = %42, %41
  %.not20 = icmp eq ptr %2, null
  br i1 %.not20, label %48, label %45

45:                                               ; preds = %44
  %46 = getelementptr inbounds i8, ptr %5, i64 8
  %47 = load double, ptr %46, align 8
  store double %47, ptr %2, align 8
  br label %48

48:                                               ; preds = %45, %44
  %.not21 = icmp eq ptr %3, null
  br i1 %.not21, label %53, label %49

49:                                               ; preds = %48
  %50 = getelementptr inbounds i8, ptr %5, i64 16
  %51 = load double, ptr %50, align 16
  store double %51, ptr %3, align 8
  br label %53

.thread36:                                        ; preds = %37, %30
  %52 = call i32 @H5CX_pop(i1 noundef zeroext true) #8
  br label %.thread30

53:                                               ; preds = %48, %49
  %54 = call i32 @H5CX_pop(i1 noundef zeroext true) #8
  br label %56

.thread30:                                        ; preds = %21, %14, %.thread36
  %55 = call i32 @H5E_dump_api_stack() #8
  br label %56

56:                                               ; preds = %53, %.thread30
  %.0152533 = phi i32 [ -1, %.thread30 ], [ 0, %53 ]
  ret i32 %.0152533
}